; Function Attrs: mustprogress nofree norecurse nosync nounwind willreturn memory(read, inaccessiblemem: none) uwtable
define hidden noundef zeroext i1 @_ZNK11bv_rewriter11has_numeralEP3app(ptr noundef nonnull readonly align 8 captures(none) dereferenceable(157) %0, ptr noundef readonly captures(none) %1) local_unnamed_addr #9 align 2 {
  %3 = getelementptr inbounds nuw i8, ptr %1, i64 24
  %4 = load i32, ptr %3, align 8, !tbaa !83
  %.not9.not = icmp eq i32 %4, 0
  br i1 %.not9.not, label %_ZNK11bv_rewriter10is_numeralEP4expr.exit._crit_edge, label %.lr.ph

.lr.ph:                                           ; preds = %2
  %5 = getelementptr inbounds nuw i8, ptr %1, i64 32
  %6 = getelementptr inbounds nuw i8, ptr %0, i64 8
  %7 = load i32, ptr %6, align 8, !tbaa !75
  %wide.trip.count = zext i32 %4 to i64
  br label %8

8:                                                ; preds = %.lr.ph, %_ZNK11bv_rewriter10is_numeralEP4expr.exit.thread
  %indvars.iv = phi i64 [ 0, %.lr.ph ], [ %indvars.iv.next, %_ZNK11bv_rewriter10is_numeralEP4expr.exit.thread ]
  %9 = getelementptr inbounds nuw [0 x ptr], ptr %5, i64 0, i64 %indvars.iv
  %10 = load ptr, ptr %9, align 8, !tbaa !67
  %11 = getelementptr inbounds nuw i8, ptr %10, i64 4
  %12 = load i32, ptr %11, align 4
  %13 = and i32 %12, 65535
  %14 = icmp eq i32 %13, 0
  br i1 %14, label %15, label %_ZNK11bv_rewriter10is_numeralEP4expr.exit.thread

15:                                               ; preds = %8
  %16 = getelementptr inbounds nuw i8, ptr %10, i64 16
  %17 = load ptr, ptr %16, align 8, !tbaa !78
  %18 = getelementptr inbounds nuw i8, ptr %17, i64 24
  %19 = load ptr, ptr %18, align 8, !tbaa !57
  %.not.i.i.i.i.i = icmp eq ptr %19, null
  br i1 %.not.i.i.i.i.i, label %_ZNK11bv_rewriter10is_numeralEP4expr.exit.thread, label %_ZNK11bv_rewriter10is_numeralEP4expr.exit

_ZNK11bv_rewriter10is_numeralEP4expr.exit:        ; preds = %15
  %20 = load i32, ptr %19, align 8, !tbaa !82
  %21 = icmp eq i32 %20, %7
  %22 = getelementptr inbounds nuw i8, ptr %19, i64 4
  %23 = load i32, ptr %22, align 4
  %24 = icmp eq i32 %23, 0
  %25 = select i1 %21, i1 %24, i1 false
  br i1 %25, label %_ZNK11bv_rewriter10is_numeralEP4expr.exit._crit_edge, label %_ZNK11bv_rewriter10is_numeralEP4expr.exit.thread

_ZNK11bv_rewriter10is_numeralEP4expr.exit.thread: ; preds = %15, %8, %_ZNK11bv_rewriter10is_numeralEP4expr.exit
  %indvars.iv.next = add nuw nsw i64 %indvars.iv, 1
  %exitcond.not = icmp eq i64 %indvars.iv.next, %wide.trip.count
  br i1 %exitcond.not, label %_ZNK11bv_rewriter10is_numeralEP4expr.exit._crit_edge, label %8, !llvm.loop !329

_ZNK11bv_rewriter10is_numeralEP4expr.exit._crit_edge: ; preds = %_ZNK11bv_rewriter10is_numeralEP4expr.exit.thread, %_ZNK11bv_rewriter10is_numeralEP4expr.exit, %2
  %.not.lcssa = phi i1 [ false, %2 ], [ true, %_ZNK11bv_rewriter10is_numeralEP4expr.exit ], [ false, %_ZNK11bv_rewriter10is_numeralEP4expr.exit.thread ]
  ret i1 %.not.lcssa
}